Certificate:
    Data:
        Version: 3 (0x2)
        Serial Number:
            61:9c:cd:d1:9c:0f:de:9b:a1:46:b3:3c:e4:cd:7a:57:67:d3:37:65
        Signature Algorithm: sha512WithRSAEncryption
        Issuer: CN=Intranet CA for home.arpa
        Validity
            Not Before: Jan  1 00:00:00 1970 GMT
            Not After : Dec 31 23:59:59 2099 GMT
        Subject: CN=Intranet CA for home.arpa
        Subject Public Key Info:
            Public Key Algorithm: rsaEncryption
                Public-Key: (2048 bit)
                Modulus:
                    00:a5:76:ea:67:b8:90:66:b3:50:34:f7:c6:a4:34:
                    db:e6:c5:6e:a1:da:db:f7:c5:1a:f8:b3:17:f3:75:
                    fd:24:3b:6c:9f:40:74:1f:7d:b0:86:db:d7:d6:e3:
                    77:7b:54:c7:6a:13:e4:f4:f6:73:9d:ec:c1:8c:c3:
                    2a:85:0b:12:96:32:b2:ff:db:f3:70:3b:b0:52:53:
                    76:11:19:79:c4:25:59:c3:79:5c:01:86:64:f9:96:
                    6c:49:5c:77:6f:d8:8f:36:d2:cc:93:f3:b9:c5:77:
                    cc:02:5f:d6:46:a3:08:6c:55:4b:a0:9e:cd:86:4a:
                    19:ee:ad:f3:4d:94:de:f4:0f:18:18:77:53:35:94:
                    4f:dd:2e:db:92:d0:31:1d:4c:8b:e1:65:16:0b:22:
                    62:ae:1c:92:76:08:52:03:1d:ff:4a:2c:22:ff:3a:
                    54:16:85:c5:3b:54:89:f0:cd:e1:28:a3:59:2f:bf:
                    d0:80:ca:c0:30:17:14:7a:32:b5:1c:a1:37:e6:a9:
                    17:1a:5f:2d:46:87:67:ff:74:d0:1a:46:e9:10:b2:
                    8c:11:e0:c3:16:b1:13:63:b4:7a:93:21:d3:52:ca:
                    24:90:0e:6f:60:8c:8a:a0:1e:ad:8a:1f:90:51:b6:
                    32:bd:00:f7:03:b3:a6:7b:51:fc:01:5e:29:a8:b3:
                    9e:bf
                Exponent: 65537 (0x10001)
        X509v3 extensions:
            X509v3 Subject Key Identifier: 
                D1:6F:18:94:AD:38:57:B0:B6:CB:0C:28:D7:B4:CB:BF:C3:0A:8B:E5
            X509v3 Authority Key Identifier: 
                D1:6F:18:94:AD:38:57:B0:B6:CB:0C:28:D7:B4:CB:BF:C3:0A:8B:E5
            X509v3 Basic Constraints: critical
                CA:TRUE
            X509v3 Name Constraints: critical
                Permitted:
                  DNS:home.arpa
                  DNS:.home.arpa
                  email:home.arpa
                  email:.home.arpa
                  IP:127.0.0.0/255.0.0.0
                  IP:10.0.0.0/255.0.0.0
                  IP:172.16.0.0/255.240.0.0
                  IP:192.168.0.0/255.255.0.0
                  IP:198.18.0.0/255.254.0.0
                  IP:0:0:0:0:0:0:0:1/FFFF:FFFF:FFFF:FFFF:FFFF:FFFF:FFFF:FFFF
                  IP:FC00:0:0:0:0:0:0:0/FE00:0:0:0:0:0:0:0
                  IP:FE80:0:0:0:0:0:0:0/FFC0:0:0:0:0:0:0:0
    Signature Algorithm: sha512WithRSAEncryption
    Signature Value:
        80:b5:2c:66:f9:b3:54:c1:96:47:f6:ad:7d:98:a4:cb:82:8e:
        b4:1b:c8:ed:30:33:51:a4:c8:28:fe:28:f2:c3:a6:9d:66:32:
        27:b6:6c:ae:08:31:33:e5:87:e6:09:0c:2b:82:08:45:05:24:
        17:f0:28:f9:75:6e:eb:63:34:96:3c:d2:c0:8e:3a:26:22:53:
        8b:63:58:68:e0:98:ff:14:31:85:ce:f4:b5:c2:f5:84:8c:11:
        18:fe:86:23:61:e5:d8:b8:f8:73:79:f5:81:6a:f6:13:28:4c:
        db:4f:ab:4a:26:6c:0c:df:8c:f7:a0:51:04:b3:f1:04:8e:48:
        64:c2:d1:24:7e:5f:c9:6d:a5:72:72:a6:64:3b:8d:90:71:3e:
        28:f7:d8:75:8b:9b:a2:fe:7f:a8:ac:5b:7a:43:19:94:05:16:
        c7:9a:ce:50:44:f0:88:c6:8c:ba:36:74:0b:97:8f:26:53:9d:
        6e:8c:cc:7b:d4:82:19:b1:56:35:b9:bc:19:8a:bc:fa:a7:fc:
        7c:74:ec:07:77:b2:a7:41:91:d0:f9:ee:3c:37:e0:34:e7:cc:
        60:ad:9f:10:65:83:01:fc:b4:2b:a3:4c:d1:09:85:b1:09:1f:
        5c:0f:00:21:6d:71:c8:bd:f7:7a:4c:46:1a:fd:04:51:52:dd:
        76:43:9b:09
-----BEGIN CERTIFICATE-----
MIIEITCCAwmgAwIBAgIUYZzN0ZwP3puhRrM85M16V2fTN2UwDQYJKoZIhvcNAQEN
BQAwJDEiMCAGA1UEAwwZSW50cmFuZXQgQ0EgZm9yIGhvbWUuYXJwYTAgFw03MDAx
MDEwMDAwMDBaGA8yMDk5MTIzMTIzNTk1OVowJDEiMCAGA1UEAwwZSW50cmFuZXQg
Q0EgZm9yIGhvbWUuYXJwYTCCASIwDQYJKoZIhvcNAQEBBQADggEPADCCAQoCggEB
AKV26me4kGazUDT3xqQ02+bFbqHa2/fFGvizF/N1/SQ7bJ9AdB99sIbb19bjd3tU
x2oT5PT2c53swYzDKoULEpYysv/b83A7sFJTdhEZecQlWcN5XAGGZPmWbElcd2/Y
jzbSzJPzucV3zAJf1kajCGxVS6CezYZKGe6t802U3vQPGBh3UzWUT90u25LQMR1M
i+FlFgsiYq4cknYIUgMd/0osIv86VBaFxTtUifDN4SijWS+/0IDKwDAXFHoytRyh
N+apFxpfLUaHZ/900BpG6RCyjBHgwxaxE2O0epMh01LKJJAOb2CMiqAerYofkFG2
Mr0A9wOzpntR/AFeKaiznr8CAwEAAaOCAUcwggFDMB0GA1UdDgQWBBTRbxiUrThX
sLbLDCjXtMu/wwqL5TAfBgNVHSMEGDAWgBTRbxiUrThXsLbLDCjXtMu/wwqL5TAP
BgNVHRMBAf8EBTADAQH/MIHvBgNVHR4BAf8EgeQwgeGggd4wC4IJaG9tZS5hcnBh
MAyCCi5ob21lLmFycGEwC4EJaG9tZS5hcnBhMAyBCi5ob21lLmFycGEwCocIfwAA
AP8AAAAwCocICgAAAP8AAAAwCocIrBAAAP/wAAAwCocIwKgAAP//AAAwCocIxhIA
AP/+AAAwIocgAAAAAAAAAAAAAAAAAAAAAf////////////////////8wIocg/AAA
AAAAAAAAAAAAAAAAAP4AAAAAAAAAAAAAAAAAAAAwIocg/oAAAAAAAAAAAAAAAAAA
AP/AAAAAAAAAAAAAAAAAAAAwDQYJKoZIhvcNAQENBQADggEBAIC1LGb5s1TBlkf2
rX2YpMuCjrQbyO0wM1GkyCj+KPLDpp1mMie2bK4IMTPlh+YJDCuCCEUFJBfwKPl1
butjNJY80sCOOiYiU4tjWGjgmP8UMYXO9LXC9YSMERj+hiNh5di4+HN59YFq9hMo
TNtPq0ombAzfjPegUQSz8QSOSGTC0SR+X8ltpXJypmQ7jZBxPij32HWLm6L+f6is
W3pDGZQFFseazlBE8IjGjLo2dAuXjyZTnW6MzHvUghmxVjW5vBmKvPqn/Hx07Ad3
sqdBkdD57jw34DTnzGCtnxBlgwH8tCujTNEJhbEJH1wPACFtcci993pMRhr9BFFS
3XZDmwk=
-----END CERTIFICATE-----
